target datalayout = "e-m:e-p270:32:32-p271:32:32-p272:64:64-i64:64-i128:128-f80:128-n8:16:32:64-S128"
target triple = "x86_64-pc-linux-gnu"

@get_default_delay.delay_in_secs = internal global i32 -1, align 4
@.str.14 = private unnamed_addr constant [19 x i8] c"GIT_PROGRESS_DELAY\00", align 1

; Function Attrs: nounwind uwtable
define internal i32 @get_default_delay() #0 {
  %1 = load i32, ptr @get_default_delay.delay_in_secs, align 4, !tbaa !4
  %2 = icmp slt i32 %1, 0
  br i1 %2, label %3, label %6

3:                                                ; preds = %0
  %4 = call i64 @git_env_ulong(ptr noundef @.str.14, i64 noundef 2)
  %5 = trunc i64 %4 to i32
  store i32 %5, ptr @get_default_delay.delay_in_secs, align 4, !tbaa !4
  br label %6

6:                                                ; preds = %3, %0
  %7 = load i32, ptr @get_default_delay.delay_in_secs, align 4, !tbaa !4
  ret i32 %7
}

; Function Attrs: nounwind uwtable
define dso_local ptr @start_delayed_sparse_progress(ptr noundef %0, ptr noundef %1, i64 noundef %2) #0 {
  %4 = alloca ptr, align 8
  %5 = alloca ptr, align 8
  %6 = alloca i64, align 8
  store ptr %0, ptr %4, align 8, !tbaa !43
  store ptr %1, ptr %5, align 8, !tbaa !31
  store i64 %2, ptr %6, align 8, !tbaa !11
  %7 = load ptr, ptr %4, align 8, !tbaa !43
  %8 = load ptr, ptr %5, align 8, !tbaa !31
  %9 = load i64, ptr %6, align 8, !tbaa !11
  %10 = call i32 @get_default_delay()
  %11 = call ptr @start_progress_delay(ptr noundef %7, ptr noundef %8, i64 noundef %9, i32 noundef %10, i32 noundef 1)
  ret ptr %11
}