; Function Attrs: nounwind uwtable
define dso_local noundef ptr @start_delayed_sparse_progress(ptr noundef %0, ptr noundef %1, i64 noundef %2) local_unnamed_addr #1 {
  %4 = load i32, ptr @get_default_delay.delay_in_secs, align 4, !tbaa !4
  %5 = icmp slt i32 %4, 0
  br i1 %5, label %6, label %get_default_delay.exit

6:                                                ; preds = %3
  %7 = tail call i64 @git_env_ulong(ptr noundef nonnull @.str.14, i64 noundef 2) #12
  %8 = trunc i64 %7 to i32
  store i32 %8, ptr @get_default_delay.delay_in_secs, align 4, !tbaa !4
  br label %get_default_delay.exit

get_default_delay.exit:                           ; preds = %3, %6
  %9 = phi i32 [ %8, %6 ], [ %4, %3 ]
  %10 = tail call fastcc ptr @start_progress_delay(ptr noundef %0, ptr noundef %1, i64 noundef %2, i32 noundef %9, i32 noundef 1)
  ret ptr %10
}